target datalayout = "e-m:e-p270:32:32-p271:32:32-p272:64:64-i64:64-i128:128-f80:128-n8:16:32:64-S128"
target triple = "x86_64-unknown-linux-gnu"

%class.mpf = type { i32, %class.mpz, i64 }
%class.mpz = type { i32, i8, ptr }
%class.mpf_manager = type { %class.mpq_manager, ptr, %"class.mpf_manager::powers2" }
%class.mpq_manager = type { %class.mpz_manager, %class.mpz, %class.mpz, %class.mpz, %class.mpz, %class.mpq, %class.mpq }
%class.mpz_manager = type { %class.small_object_allocator, %"class.std::recursive_mutex", %class.mpn_manager, i32, %class.mpz, %class.mpz }
%class.small_object_allocator = type { [32 x ptr], [32 x ptr], i64 }
%"class.std::recursive_mutex" = type { %"class.std::__recursive_mutex_base" }
%"class.std::__recursive_mutex_base" = type { %union.pthread_mutex_t }
%union.pthread_mutex_t = type { %struct.__pthread_mutex_s }
%struct.__pthread_mutex_s = type { i32, i32, i32, i32, i32, i16, i16, %struct.__pthread_internal_list }
%struct.__pthread_internal_list = type { ptr, ptr }
%class.mpn_manager = type { i8 }
%class.mpq = type { %class.mpz, %class.mpz }
%"class.mpf_manager::powers2" = type { ptr, %class.u_map, %class.u_map, %class.u_map, %class.u_map }
%class.u_map = type { %class.map }
%class.map = type { %class.table2map }
%class.table2map = type { %class.core_hashtable }
%class.core_hashtable = type <{ ptr, i32, i32, i32, [4 x i8] }>

; Function Attrs: mustprogress nounwind uwtable
define linkonce_odr hidden noundef i32 @_ZN11mpz_managerILb0EE4signERK3mpz(ptr noundef nonnull align 8 dereferenceable(16) %a) #5 comdat align 2 {
entry:
  %a.addr = alloca ptr, align 8
  store ptr %a, ptr %a.addr, align 8
  %0 = load ptr, ptr %a.addr, align 8
  %m_val = getelementptr inbounds %class.mpz, ptr %0, i32 0, i32 0
  %1 = load i32, ptr %m_val, align 8
  ret i32 %1
}

; Function Attrs: mustprogress uwtable
define hidden noundef i64 @_ZN11mpf_manager10mk_bot_expEj(ptr noundef nonnull align 8 dereferenceable(840) %this, i32 noundef %ebits) #4 align 2 {
entry:
  %this.addr = alloca ptr, align 8
  %ebits.addr = alloca i32, align 4
  store ptr %this, ptr %this.addr, align 8
  store i32 %ebits, ptr %ebits.addr, align 4
  %this1 = load ptr, ptr %this.addr, align 8
  %m_mpz_manager = getelementptr inbounds %class.mpf_manager, ptr %this1, i32 0, i32 1
  %0 = load ptr, ptr %m_mpz_manager, align 8
  %m_powers2 = getelementptr inbounds %class.mpf_manager, ptr %this1, i32 0, i32 2
  %1 = load i32, ptr %ebits.addr, align 4
  %sub = sub i32 %1, 1
  %call = call noundef nonnull align 8 dereferenceable(16) ptr @_ZN11mpf_manager7powers22m1Ejb(ptr noundef nonnull align 8 dereferenceable(104) %m_powers2, i32 noundef %sub, i1 noundef zeroext true)
  %call2 = call noundef i64 @_ZNK11mpz_managerILb0EE9get_int64ERK3mpz(ptr noundef nonnull align 8 dereferenceable(600) %0, ptr noundef nonnull align 8 dereferenceable(16) %call)
  ret i64 %call2
}

; Function Attrs: mustprogress nounwind uwtable
define linkonce_odr hidden noundef nonnull align 8 dereferenceable(8) ptr @_ZNK11mpf_manager3expERK3mpf(ptr noundef nonnull align 8 dereferenceable(840) %this, ptr noundef nonnull align 8 dereferenceable(32) %x) #5 comdat align 2 {
entry:
  %this.addr = alloca ptr, align 8
  %x.addr = alloca ptr, align 8
  store ptr %this, ptr %this.addr, align 8
  store ptr %x, ptr %x.addr, align 8
  %0 = load ptr, ptr %x.addr, align 8
  %exponent = getelementptr inbounds %class.mpf, ptr %0, i32 0, i32 2
  ret ptr %exponent
}

; Function Attrs: mustprogress uwtable
define linkonce_odr hidden noundef zeroext i1 @_ZN11mpz_managerILb0EE7is_zeroERK3mpz(ptr noundef nonnull align 8 dereferenceable(16) %a) #4 comdat align 2 {
entry:
  %a.addr = alloca ptr, align 8
  store ptr %a, ptr %a.addr, align 8
  %0 = load ptr, ptr %a.addr, align 8
  %call = call noundef i32 @_ZN11mpz_managerILb0EE4signERK3mpz(ptr noundef nonnull align 8 dereferenceable(16) %0)
  %cmp = icmp eq i32 %call, 0
  ret i1 %cmp
}

; Function Attrs: mustprogress nounwind uwtable
define linkonce_odr hidden noundef nonnull align 8 dereferenceable(16) ptr @_ZNK11mpf_manager3sigERK3mpf(ptr noundef nonnull align 8 dereferenceable(840) %this, ptr noundef nonnull align 8 dereferenceable(32) %x) #5 comdat align 2 {
entry:
  %this.addr = alloca ptr, align 8
  %x.addr = alloca ptr, align 8
  store ptr %this, ptr %this.addr, align 8
  store ptr %x, ptr %x.addr, align 8
  %0 = load ptr, ptr %x.addr, align 8
  %significand = getelementptr inbounds %class.mpf, ptr %0, i32 0, i32 1
  ret ptr %significand
}

; Function Attrs: mustprogress uwtable
define hidden noundef zeroext i1 @_ZN11mpf_manager11has_bot_expERK3mpf(ptr noundef nonnull align 8 dereferenceable(840) %this, ptr noundef nonnull align 8 dereferenceable(32) %x) #4 align 2 {
entry:
  %this.addr = alloca ptr, align 8
  %x.addr = alloca ptr, align 8
  store ptr %this, ptr %this.addr, align 8
  store ptr %x, ptr %x.addr, align 8
  %this1 = load ptr, ptr %this.addr, align 8
  %0 = load ptr, ptr %x.addr, align 8
  %call = call noundef nonnull align 8 dereferenceable(8) ptr @_ZNK11mpf_manager3expERK3mpf(ptr noundef nonnull align 8 dereferenceable(840) %this1, ptr noundef nonnull align 8 dereferenceable(32) %0)
  %1 = load i64, ptr %call, align 8
  %2 = load ptr, ptr %x.addr, align 8
  %bf.load = load i32, ptr %2, align 8
  %bf.clear = and i32 %bf.load, 32767
  %call2 = call noundef i64 @_ZN11mpf_manager10mk_bot_expEj(ptr noundef nonnull align 8 dereferenceable(840) %this1, i32 noundef %bf.clear)
  %cmp = icmp eq i64 %1, %call2
  ret i1 %cmp
}

; Function Attrs: mustprogress uwtable
define hidden noundef zeroext i1 @_ZN11mpf_manager7is_zeroERK3mpf(ptr noundef nonnull align 8 dereferenceable(840) %this, ptr noundef nonnull align 8 dereferenceable(32) %x) #4 align 2 {
entry:
  %this.addr = alloca ptr, align 8
  %x.addr = alloca ptr, align 8
  store ptr %this, ptr %this.addr, align 8
  store ptr %x, ptr %x.addr, align 8
  %this1 = load ptr, ptr %this.addr, align 8
  %0 = load ptr, ptr %x.addr, align 8
  %call = call noundef zeroext i1 @_ZN11mpf_manager11has_bot_expERK3mpf(ptr noundef nonnull align 8 dereferenceable(840) %this1, ptr noundef nonnull align 8 dereferenceable(32) %0)
  br i1 %call, label %land.rhs, label %land.end

land.rhs:                                         ; preds = %entry
  %1 = load ptr, ptr %x.addr, align 8
  %call2 = call noundef nonnull align 8 dereferenceable(16) ptr @_ZNK11mpf_manager3sigERK3mpf(ptr noundef nonnull align 8 dereferenceable(840) %this1, ptr noundef nonnull align 8 dereferenceable(32) %1)
  %call3 = call noundef zeroext i1 @_ZN11mpz_managerILb0EE7is_zeroERK3mpz(ptr noundef nonnull align 8 dereferenceable(16) %call2)
  br label %land.end

land.end:                                         ; preds = %land.rhs, %entry
  %2 = phi i1 [ false, %entry ], [ %call3, %land.rhs ]
  ret i1 %2
}

; Function Attrs: mustprogress uwtable
define hidden noundef zeroext i1 @_ZN11mpf_manager8is_nzeroERK3mpf(ptr noundef nonnull align 8 dereferenceable(840) %this, ptr noundef nonnull align 8 dereferenceable(32) %x) #4 align 2 {
entry:
  %this.addr = alloca ptr, align 8
  %x.addr = alloca ptr, align 8
  store ptr %this, ptr %this.addr, align 8
  store ptr %x, ptr %x.addr, align 8
  %this1 = load ptr, ptr %this.addr, align 8
  %0 = load ptr, ptr %x.addr, align 8
  %bf.load = load i32, ptr %0, align 8
  %bf.lshr = lshr i32 %bf.load, 31
  %tobool = icmp ne i32 %bf.lshr, 0
  br i1 %tobool, label %land.rhs, label %land.end

land.rhs:                                         ; preds = %entry
  %1 = load ptr, ptr %x.addr, align 8
  %call = call noundef zeroext i1 @_ZN11mpf_manager7is_zeroERK3mpf(ptr noundef nonnull align 8 dereferenceable(840) %this1, ptr noundef nonnull align 8 dereferenceable(32) %1)
  br label %land.end

land.end:                                         ; preds = %land.rhs, %entry
  %2 = phi i1 [ false, %entry ], [ %call, %land.rhs ]
  ret i1 %2
}