; Function Attrs: mustprogress uwtable
define hidden noundef zeroext i1 @_ZN11mpf_manager8is_nzeroERK3mpf(ptr noundef nonnull align 8 dereferenceable(840) %this, ptr nocapture noundef nonnull readonly align 8 dereferenceable(32) %x) local_unnamed_addr #5 align 2 {
entry:
  %bf.load = load i32, ptr %x, align 8
  %tobool.not = icmp sgt i32 %bf.load, -1
  br i1 %tobool.not, label %land.end, label %land.rhs

land.rhs:                                         ; preds = %entry
  %exponent.i.i.i = getelementptr inbounds i8, ptr %x, i64 24
  %0 = load i64, ptr %exponent.i.i.i, align 8
  %bf.clear.i.i = and i32 %bf.load, 32767
  %m_mpz_manager.i.i.i = getelementptr inbounds i8, ptr %this, i64 728
  %1 = load ptr, ptr %m_mpz_manager.i.i.i, align 8
  %m_powers2.i.i.i = getelementptr inbounds i8, ptr %this, i64 736
  %sub.i.i.i = add nsw i32 %bf.clear.i.i, -1
  %call.i.i.i = tail call noundef nonnull align 8 dereferenceable(16) ptr @_ZN11mpf_manager7powers22m1Ejb(ptr noundef nonnull align 8 dereferenceable(104) %m_powers2.i.i.i, i32 noundef %sub.i.i.i, i1 noundef zeroext true)
  %call2.i.i.i = tail call noundef i64 @_ZNK11mpz_managerILb0EE9get_int64ERK3mpz(ptr noundef nonnull align 8 dereferenceable(600) %1, ptr noundef nonnull align 8 dereferenceable(16) %call.i.i.i)
  %cmp.i.i = icmp eq i64 %0, %call2.i.i.i
  %significand.i.i = getelementptr inbounds i8, ptr %x, i64 8
  %2 = load i32, ptr %significand.i.i, align 8
  %cmp.i2.i = icmp eq i32 %2, 0
  %3 = select i1 %cmp.i.i, i1 %cmp.i2.i, i1 false
  br label %land.end

land.end:                                         ; preds = %land.rhs, %entry
  %4 = phi i1 [ false, %entry ], [ %3, %land.rhs ]
  ret i1 %4
}